target datalayout = "e-m:e-p270:32:32-p271:32:32-p272:64:64-i64:64-i128:128-f80:128-n8:16:32:64-S128"
target triple = "x86_64-pc-linux-gnu"

%struct.mpd_context_t = type { i64, i64, i64, i32, i32, i32, i32, i32, i32 }
%struct.mpd_t = type { i8, i64, i64, i64, i64, ptr }

@MPD_MINALLOC = external hidden global i64, align 8

; Function Attrs: alwaysinline nounwind uwtable
define hidden i32 @mpd_isstatic_data(ptr noundef %0) #1 {
  %2 = alloca ptr, align 8
  store ptr %0, ptr %2, align 8, !tbaa !7
  %3 = load ptr, ptr %2, align 8, !tbaa !7
  %4 = getelementptr inbounds nuw %struct.mpd_t, ptr %3, i32 0, i32 0
  %5 = load i8, ptr %4, align 8, !tbaa !25
  %6 = zext i8 %5 to i32
  %7 = and i32 %6, 32
  ret i32 %7
}

; Function Attrs: alwaysinline nounwind uwtable
define hidden void @mpd_copy_flags(ptr noundef %0, ptr noundef %1) #1 {
  %3 = alloca ptr, align 8
  %4 = alloca ptr, align 8
  %5 = alloca i8, align 1
  store ptr %0, ptr %3, align 8, !tbaa !7
  store ptr %1, ptr %4, align 8, !tbaa !7
  call void @llvm.lifetime.start.p0(i64 1, ptr %5) #10
  %6 = load ptr, ptr %4, align 8, !tbaa !7
  %7 = getelementptr inbounds nuw %struct.mpd_t, ptr %6, i32 0, i32 0
  %8 = load i8, ptr %7, align 8, !tbaa !25
  store i8 %8, ptr %5, align 1, !tbaa !32
  %9 = load ptr, ptr %3, align 8, !tbaa !7
  %10 = getelementptr inbounds nuw %struct.mpd_t, ptr %9, i32 0, i32 0
  %11 = load i8, ptr %10, align 8, !tbaa !25
  %12 = zext i8 %11 to i32
  %13 = and i32 %12, 240
  %14 = trunc i32 %13 to i8
  store i8 %14, ptr %10, align 8, !tbaa !25
  %15 = load i8, ptr %5, align 1, !tbaa !32
  %16 = zext i8 %15 to i32
  %17 = and i32 %16, -241
  %18 = load ptr, ptr %3, align 8, !tbaa !7
  %19 = getelementptr inbounds nuw %struct.mpd_t, ptr %18, i32 0, i32 0
  %20 = load i8, ptr %19, align 8, !tbaa !25
  %21 = zext i8 %20 to i32
  %22 = or i32 %21, %17
  %23 = trunc i32 %22 to i8
  store i8 %23, ptr %19, align 8, !tbaa !25
  call void @llvm.lifetime.end.p0(i64 1, ptr %5) #10
  ret void
}

; Function Attrs: alwaysinline nounwind uwtable
define hidden i32 @mpd_qresize(ptr noundef %0, i64 noundef %1, ptr noundef %2) #1 {
  %4 = alloca i32, align 4
  %5 = alloca ptr, align 8
  %6 = alloca i64, align 8
  %7 = alloca ptr, align 8
  store ptr %0, ptr %5, align 8, !tbaa !7
  store i64 %1, ptr %6, align 8, !tbaa !3
  store ptr %2, ptr %7, align 8, !tbaa !29
  %8 = load i64, ptr %6, align 8, !tbaa !3
  %9 = load i64, ptr @MPD_MINALLOC, align 8, !tbaa !3
  %10 = icmp sle i64 %8, %9
  br i1 %10, label %11, label %13

11:                                               ; preds = %3
  %12 = load i64, ptr @MPD_MINALLOC, align 8, !tbaa !3
  br label %15

13:                                               ; preds = %3
  %14 = load i64, ptr %6, align 8, !tbaa !3
  br label %15

15:                                               ; preds = %13, %11
  %16 = phi i64 [ %12, %11 ], [ %14, %13 ]
  store i64 %16, ptr %6, align 8, !tbaa !3
  %17 = load i64, ptr %6, align 8, !tbaa !3
  %18 = load ptr, ptr %5, align 8, !tbaa !7
  %19 = getelementptr inbounds nuw %struct.mpd_t, ptr %18, i32 0, i32 4
  %20 = load i64, ptr %19, align 8, !tbaa !31
  %21 = icmp eq i64 %17, %20
  br i1 %21, label %22, label %23

22:                                               ; preds = %15
  store i32 1, ptr %4, align 4
  br label %44

23:                                               ; preds = %15
  %24 = load ptr, ptr %5, align 8, !tbaa !7
  %25 = call i32 @mpd_isstatic_data(ptr noundef %24)
  %26 = icmp ne i32 %25, 0
  br i1 %26, label %27, label %39

27:                                               ; preds = %23
  %28 = load i64, ptr %6, align 8, !tbaa !3
  %29 = load ptr, ptr %5, align 8, !tbaa !7
  %30 = getelementptr inbounds nuw %struct.mpd_t, ptr %29, i32 0, i32 4
  %31 = load i64, ptr %30, align 8, !tbaa !31
  %32 = icmp sgt i64 %28, %31
  br i1 %32, label %33, label %38

33:                                               ; preds = %27
  %34 = load ptr, ptr %5, align 8, !tbaa !7
  %35 = load i64, ptr %6, align 8, !tbaa !3
  %36 = load ptr, ptr %7, align 8, !tbaa !29
  %37 = call i32 @mpd_switch_to_dyn(ptr noundef %34, i64 noundef %35, ptr noundef %36)
  store i32 %37, ptr %4, align 4
  br label %44

38:                                               ; preds = %27
  store i32 1, ptr %4, align 4
  br label %44

39:                                               ; preds = %23
  %40 = load ptr, ptr %5, align 8, !tbaa !7
  %41 = load i64, ptr %6, align 8, !tbaa !3
  %42 = load ptr, ptr %7, align 8, !tbaa !29
  %43 = call i32 @mpd_realloc_dyn(ptr noundef %40, i64 noundef %41, ptr noundef %42)
  store i32 %43, ptr %4, align 4
  br label %44

44:                                               ; preds = %39, %38, %33, %22
  %45 = load i32, ptr %4, align 4
  ret i32 %45
}

; Function Attrs: alwaysinline nounwind uwtable
define hidden i64 @mpd_msword(ptr noundef %0) #1 {
  %2 = alloca ptr, align 8
  store ptr %0, ptr %2, align 8, !tbaa !7
  %3 = load ptr, ptr %2, align 8, !tbaa !7
  %4 = getelementptr inbounds nuw %struct.mpd_t, ptr %3, i32 0, i32 5
  %5 = load ptr, ptr %4, align 8, !tbaa !21
  %6 = load ptr, ptr %2, align 8, !tbaa !7
  %7 = getelementptr inbounds nuw %struct.mpd_t, ptr %6, i32 0, i32 3
  %8 = load i64, ptr %7, align 8, !tbaa !22
  %9 = sub i64 %8, 1
  %10 = getelementptr i64, ptr %5, i64 %9
  %11 = load i64, ptr %10, align 8, !tbaa !3
  ret i64 %11
}

; Function Attrs: alwaysinline nounwind uwtable
define hidden i32 @mpd_isspecial(ptr noundef %0) #1 {
  %2 = alloca ptr, align 8
  store ptr %0, ptr %2, align 8, !tbaa !7
  %3 = load ptr, ptr %2, align 8, !tbaa !7
  %4 = getelementptr inbounds nuw %struct.mpd_t, ptr %3, i32 0, i32 0
  %5 = load i8, ptr %4, align 8, !tbaa !25
  %6 = zext i8 %5 to i32
  %7 = and i32 %6, 14
  ret i32 %7
}

; Function Attrs: alwaysinline nounwind uwtable
define hidden void @mpd_set_sign(ptr noundef %0, i8 noundef zeroext %1) #1 {
  %3 = alloca ptr, align 8
  %4 = alloca i8, align 1
  store ptr %0, ptr %3, align 8, !tbaa !7
  store i8 %1, ptr %4, align 1, !tbaa !32
  %5 = load ptr, ptr %3, align 8, !tbaa !7
  %6 = getelementptr inbounds nuw %struct.mpd_t, ptr %5, i32 0, i32 0
  %7 = load i8, ptr %6, align 8, !tbaa !25
  %8 = zext i8 %7 to i32
  %9 = and i32 %8, -2
  %10 = trunc i32 %9 to i8
  store i8 %10, ptr %6, align 8, !tbaa !25
  %11 = load i8, ptr %4, align 1, !tbaa !32
  %12 = zext i8 %11 to i32
  %13 = load ptr, ptr %3, align 8, !tbaa !7
  %14 = getelementptr inbounds nuw %struct.mpd_t, ptr %13, i32 0, i32 0
  %15 = load i8, ptr %14, align 8, !tbaa !25
  %16 = zext i8 %15 to i32
  %17 = or i32 %16, %12
  %18 = trunc i32 %17 to i8
  store i8 %18, ptr %14, align 8, !tbaa !25
  ret void
}

; Function Attrs: nounwind uwtable
define hidden i32 @mpd_qcopy(ptr noundef %0, ptr noundef %1, ptr noundef %2) #0 {
  %4 = alloca i32, align 4
  %5 = alloca ptr, align 8
  %6 = alloca ptr, align 8
  %7 = alloca ptr, align 8
  store ptr %0, ptr %5, align 8, !tbaa !7
  store ptr %1, ptr %6, align 8, !tbaa !7
  store ptr %2, ptr %7, align 8, !tbaa !29
  %8 = load ptr, ptr %5, align 8, !tbaa !7
  %9 = load ptr, ptr %6, align 8, !tbaa !7
  %10 = icmp eq ptr %8, %9
  br i1 %10, label %11, label %12

11:                                               ; preds = %3
  store i32 1, ptr %4, align 4
  br label %49

12:                                               ; preds = %3
  %13 = load ptr, ptr %5, align 8, !tbaa !7
  %14 = load ptr, ptr %6, align 8, !tbaa !7
  %15 = getelementptr inbounds nuw %struct.mpd_t, ptr %14, i32 0, i32 3
  %16 = load i64, ptr %15, align 8, !tbaa !22
  %17 = load ptr, ptr %7, align 8, !tbaa !29
  %18 = call i32 @mpd_qresize(ptr noundef %13, i64 noundef %16, ptr noundef %17)
  %19 = icmp ne i32 %18, 0
  br i1 %19, label %21, label %20

20:                                               ; preds = %12
  store i32 0, ptr %4, align 4
  br label %49

21:                                               ; preds = %12
  %22 = load ptr, ptr %5, align 8, !tbaa !7
  %23 = load ptr, ptr %6, align 8, !tbaa !7
  call void @mpd_copy_flags(ptr noundef %22, ptr noundef %23)
  %24 = load ptr, ptr %6, align 8, !tbaa !7
  %25 = getelementptr inbounds nuw %struct.mpd_t, ptr %24, i32 0, i32 1
  %26 = load i64, ptr %25, align 8, !tbaa !10
  %27 = load ptr, ptr %5, align 8, !tbaa !7
  %28 = getelementptr inbounds nuw %struct.mpd_t, ptr %27, i32 0, i32 1
  store i64 %26, ptr %28, align 8, !tbaa !10
  %29 = load ptr, ptr %6, align 8, !tbaa !7
  %30 = getelementptr inbounds nuw %struct.mpd_t, ptr %29, i32 0, i32 2
  %31 = load i64, ptr %30, align 8, !tbaa !13
  %32 = load ptr, ptr %5, align 8, !tbaa !7
  %33 = getelementptr inbounds nuw %struct.mpd_t, ptr %32, i32 0, i32 2
  store i64 %31, ptr %33, align 8, !tbaa !13
  %34 = load ptr, ptr %6, align 8, !tbaa !7
  %35 = getelementptr inbounds nuw %struct.mpd_t, ptr %34, i32 0, i32 3
  %36 = load i64, ptr %35, align 8, !tbaa !22
  %37 = load ptr, ptr %5, align 8, !tbaa !7
  %38 = getelementptr inbounds nuw %struct.mpd_t, ptr %37, i32 0, i32 3
  store i64 %36, ptr %38, align 8, !tbaa !22
  %39 = load ptr, ptr %5, align 8, !tbaa !7
  %40 = getelementptr inbounds nuw %struct.mpd_t, ptr %39, i32 0, i32 5
  %41 = load ptr, ptr %40, align 8, !tbaa !21
  %42 = load ptr, ptr %6, align 8, !tbaa !7
  %43 = getelementptr inbounds nuw %struct.mpd_t, ptr %42, i32 0, i32 5
  %44 = load ptr, ptr %43, align 8, !tbaa !21
  %45 = load ptr, ptr %6, align 8, !tbaa !7
  %46 = getelementptr inbounds nuw %struct.mpd_t, ptr %45, i32 0, i32 3
  %47 = load i64, ptr %46, align 8, !tbaa !22
  %48 = mul i64 %47, 8
  call void @llvm.memcpy.p0.p0.i64(ptr align 8 %41, ptr align 8 %44, i64 %48, i1 false)
  store i32 1, ptr %4, align 4
  br label %49

49:                                               ; preds = %21, %20, %11
  %50 = load i32, ptr %4, align 4
  ret i32 %50
}

; Function Attrs: alwaysinline nounwind uwtable
define hidden zeroext i8 @mpd_sign(ptr noundef %0) #1 {
  %2 = alloca ptr, align 8
  store ptr %0, ptr %2, align 8, !tbaa !7
  %3 = load ptr, ptr %2, align 8, !tbaa !7
  %4 = getelementptr inbounds nuw %struct.mpd_t, ptr %3, i32 0, i32 0
  %5 = load i8, ptr %4, align 8, !tbaa !25
  %6 = zext i8 %5 to i32
  %7 = and i32 %6, 1
  %8 = trunc i32 %7 to i8
  ret i8 %8
}

; Function Attrs: alwaysinline nounwind uwtable
define hidden i32 @mpd_iszero(ptr noundef %0) #1 {
  %2 = alloca ptr, align 8
  store ptr %0, ptr %2, align 8, !tbaa !7
  %3 = load ptr, ptr %2, align 8, !tbaa !7
  %4 = call i32 @mpd_isspecial(ptr noundef %3)
  %5 = icmp ne i32 %4, 0
  br i1 %5, label %10, label %6

6:                                                ; preds = %1
  %7 = load ptr, ptr %2, align 8, !tbaa !7
  %8 = call i64 @mpd_msword(ptr noundef %7)
  %9 = icmp eq i64 %8, 0
  br label %10

10:                                               ; preds = %6, %1
  %11 = phi i1 [ false, %1 ], [ %9, %6 ]
  %12 = zext i1 %11 to i32
  ret i32 %12
}

; Function Attrs: alwaysinline nounwind uwtable
define hidden i64 @mpd_adjexp(ptr noundef %0) #1 {
  %2 = alloca ptr, align 8
  store ptr %0, ptr %2, align 8, !tbaa !7
  %3 = load ptr, ptr %2, align 8, !tbaa !7
  %4 = getelementptr inbounds nuw %struct.mpd_t, ptr %3, i32 0, i32 1
  %5 = load i64, ptr %4, align 8, !tbaa !10
  %6 = load ptr, ptr %2, align 8, !tbaa !7
  %7 = getelementptr inbounds nuw %struct.mpd_t, ptr %6, i32 0, i32 2
  %8 = load i64, ptr %7, align 8, !tbaa !13
  %9 = add i64 %5, %8
  %10 = sub i64 %9, 1
  ret i64 %10
}

; Function Attrs: alwaysinline nounwind uwtable
define hidden i32 @mpd_isinfinite(ptr noundef %0) #1 {
  %2 = alloca ptr, align 8
  store ptr %0, ptr %2, align 8, !tbaa !7
  %3 = load ptr, ptr %2, align 8, !tbaa !7
  %4 = getelementptr inbounds nuw %struct.mpd_t, ptr %3, i32 0, i32 0
  %5 = load i8, ptr %4, align 8, !tbaa !25
  %6 = zext i8 %5 to i32
  %7 = and i32 %6, 2
  ret i32 %7
}

; Function Attrs: nounwind uwtable
define hidden i32 @mpd_qcopy_sign(ptr noundef %0, ptr noundef %1, ptr noundef %2, ptr noundef %3) #0 {
  %5 = alloca i32, align 4
  %6 = alloca ptr, align 8
  %7 = alloca ptr, align 8
  %8 = alloca ptr, align 8
  %9 = alloca ptr, align 8
  %10 = alloca i8, align 1
  %11 = alloca i32, align 4
  store ptr %0, ptr %6, align 8, !tbaa !7
  store ptr %1, ptr %7, align 8, !tbaa !7
  store ptr %2, ptr %8, align 8, !tbaa !7
  store ptr %3, ptr %9, align 8, !tbaa !29
  call void @llvm.lifetime.start.p0(i64 1, ptr %10) #10
  %12 = load ptr, ptr %8, align 8, !tbaa !7
  %13 = call zeroext i8 @mpd_sign(ptr noundef %12)
  store i8 %13, ptr %10, align 1, !tbaa !32
  %14 = load ptr, ptr %6, align 8, !tbaa !7
  %15 = load ptr, ptr %7, align 8, !tbaa !7
  %16 = load ptr, ptr %9, align 8, !tbaa !29
  %17 = call i32 @mpd_qcopy(ptr noundef %14, ptr noundef %15, ptr noundef %16)
  %18 = icmp ne i32 %17, 0
  br i1 %18, label %20, label %19

19:                                               ; preds = %4
  store i32 0, ptr %5, align 4
  store i32 1, ptr %11, align 4
  br label %23

20:                                               ; preds = %4
  %21 = load ptr, ptr %6, align 8, !tbaa !7
  %22 = load i8, ptr %10, align 1, !tbaa !32
  call void @mpd_set_sign(ptr noundef %21, i8 noundef zeroext %22)
  store i32 1, ptr %5, align 4
  store i32 1, ptr %11, align 4
  br label %23

23:                                               ; preds = %20, %19
  call void @llvm.lifetime.end.p0(i64 1, ptr %10) #10
  %24 = load i32, ptr %5, align 4
  ret i32 %24
}

; Function Attrs: nounwind uwtable
define hidden void @mpd_qnext_toward(ptr noundef %0, ptr noundef %1, ptr noundef %2, ptr noundef %3, ptr noundef %4) #0 {
  %6 = alloca ptr, align 8
  %7 = alloca ptr, align 8
  %8 = alloca ptr, align 8
  %9 = alloca ptr, align 8
  %10 = alloca ptr, align 8
  %11 = alloca i32, align 4
  %12 = alloca i32, align 4
  store ptr %0, ptr %6, align 8, !tbaa !7
  store ptr %1, ptr %7, align 8, !tbaa !7
  store ptr %2, ptr %8, align 8, !tbaa !7
  store ptr %3, ptr %9, align 8, !tbaa !14
  store ptr %4, ptr %10, align 8, !tbaa !29
  call void @llvm.lifetime.start.p0(i64 4, ptr %11) #10
  %13 = load ptr, ptr %6, align 8, !tbaa !7
  %14 = load ptr, ptr %7, align 8, !tbaa !7
  %15 = load ptr, ptr %8, align 8, !tbaa !7
  %16 = load ptr, ptr %9, align 8, !tbaa !14
  %17 = load ptr, ptr %10, align 8, !tbaa !29
  %18 = call i32 @mpd_qcheck_nans(ptr noundef %13, ptr noundef %14, ptr noundef %15, ptr noundef %16, ptr noundef %17)
  %19 = icmp ne i32 %18, 0
  br i1 %19, label %20, label %21

20:                                               ; preds = %5
  store i32 1, ptr %12, align 4
  br label %75

21:                                               ; preds = %5
  %22 = load ptr, ptr %7, align 8, !tbaa !7
  %23 = load ptr, ptr %8, align 8, !tbaa !7
  %24 = call i32 @_mpd_cmp(ptr noundef %22, ptr noundef %23)
  store i32 %24, ptr %11, align 4, !tbaa !23
  %25 = load i32, ptr %11, align 4, !tbaa !23
  %26 = icmp eq i32 %25, 0
  br i1 %26, label %27, label %33

27:                                               ; preds = %21
  %28 = load ptr, ptr %6, align 8, !tbaa !7
  %29 = load ptr, ptr %7, align 8, !tbaa !7
  %30 = load ptr, ptr %8, align 8, !tbaa !7
  %31 = load ptr, ptr %10, align 8, !tbaa !29
  %32 = call i32 @mpd_qcopy_sign(ptr noundef %28, ptr noundef %29, ptr noundef %30, ptr noundef %31)
  store i32 1, ptr %12, align 4
  br label %75

33:                                               ; preds = %21
  %34 = load i32, ptr %11, align 4, !tbaa !23
  %35 = icmp slt i32 %34, 0
  br i1 %35, label %36, label %41

36:                                               ; preds = %33
  %37 = load ptr, ptr %6, align 8, !tbaa !7
  %38 = load ptr, ptr %7, align 8, !tbaa !7
  %39 = load ptr, ptr %9, align 8, !tbaa !14
  %40 = load ptr, ptr %10, align 8, !tbaa !29
  call void @mpd_qnext_plus(ptr noundef %37, ptr noundef %38, ptr noundef %39, ptr noundef %40)
  br label %46

41:                                               ; preds = %33
  %42 = load ptr, ptr %6, align 8, !tbaa !7
  %43 = load ptr, ptr %7, align 8, !tbaa !7
  %44 = load ptr, ptr %9, align 8, !tbaa !14
  %45 = load ptr, ptr %10, align 8, !tbaa !29
  call void @mpd_qnext_minus(ptr noundef %42, ptr noundef %43, ptr noundef %44, ptr noundef %45)
  br label %46

46:                                               ; preds = %41, %36
  %47 = load ptr, ptr %6, align 8, !tbaa !7
  %48 = call i32 @mpd_isinfinite(ptr noundef %47)
  %49 = icmp ne i32 %48, 0
  br i1 %49, label %50, label %54

50:                                               ; preds = %46
  %51 = load ptr, ptr %10, align 8, !tbaa !29
  %52 = load i32, ptr %51, align 4, !tbaa !23
  %53 = or i32 %52, 6208
  store i32 %53, ptr %51, align 4, !tbaa !23
  br label %74

54:                                               ; preds = %46
  %55 = load ptr, ptr %6, align 8, !tbaa !7
  %56 = call i64 @mpd_adjexp(ptr noundef %55)
  %57 = load ptr, ptr %9, align 8, !tbaa !14
  %58 = getelementptr inbounds nuw %struct.mpd_context_t, ptr %57, i32 0, i32 2
  %59 = load i64, ptr %58, align 8, !tbaa !16
  %60 = icmp slt i64 %56, %59
  br i1 %60, label %61, label %73

61:                                               ; preds = %54
  %62 = load ptr, ptr %10, align 8, !tbaa !29
  %63 = load i32, ptr %62, align 4, !tbaa !23
  %64 = or i32 %63, 28736
  store i32 %64, ptr %62, align 4, !tbaa !23
  %65 = load ptr, ptr %6, align 8, !tbaa !7
  %66 = call i32 @mpd_iszero(ptr noundef %65)
  %67 = icmp ne i32 %66, 0
  br i1 %67, label %68, label %72

68:                                               ; preds = %61
  %69 = load ptr, ptr %10, align 8, !tbaa !29
  %70 = load i32, ptr %69, align 4, !tbaa !23
  %71 = or i32 %70, 1
  store i32 %71, ptr %69, align 4, !tbaa !23
  br label %72

72:                                               ; preds = %68, %61
  br label %73

73:                                               ; preds = %72, %54
  br label %74

74:                                               ; preds = %73, %50
  store i32 0, ptr %12, align 4
  br label %75

75:                                               ; preds = %74, %27, %20
  call void @llvm.lifetime.end.p0(i64 4, ptr %11) #10
  %76 = load i32, ptr %12, align 4
  switch i32 %76, label %78 [
    i32 0, label %77
    i32 1, label %77
  ]

77:                                               ; preds = %75, %75
  ret void

78:                                               ; preds = %75
  unreachable
}