; Function Attrs: nounwind uwtable
define hidden void @mpd_qnext_toward(ptr noundef %0, ptr noundef %1, ptr noundef %2, ptr noundef readonly captures(none) %3, ptr noundef %4) local_unnamed_addr #10 {
  %6 = tail call i32 @mpd_qcheck_nans(ptr noundef %0, ptr noundef %1, ptr noundef %2, ptr noundef %3, ptr noundef %4)
  %.not = icmp eq i32 %6, 0
  br i1 %.not, label %7, label %mpd_qcopy_sign.exit

7:                                                ; preds = %5
  %8 = tail call fastcc i32 @_mpd_cmp(ptr noundef %1, ptr noundef %2)
  %9 = icmp eq i32 %8, 0
  br i1 %9, label %10, label %53

10:                                               ; preds = %7
  %11 = load i8, ptr %2, align 8, !tbaa !19
  %12 = and i8 %11, 1
  %13 = icmp eq ptr %0, %1
  br i1 %13, label %49, label %14

14:                                               ; preds = %10
  %15 = getelementptr inbounds nuw i8, ptr %1, i64 24
  %16 = load i64, ptr %15, align 8, !tbaa !18
  %17 = load i64, ptr @MPD_MINALLOC, align 8, !tbaa !3
  %18 = tail call i64 @llvm.smax.i64(i64 %16, i64 %17)
  %19 = getelementptr inbounds nuw i8, ptr %0, i64 32
  %20 = load i64, ptr %19, align 8, !tbaa !21
  %21 = icmp eq i64 %18, %20
  %.pre20.i.i = load i8, ptr %0, align 8, !tbaa !19
  br i1 %21, label %mpd_qresize.exit.thread.i.i, label %22

22:                                               ; preds = %14
  %23 = and i8 %.pre20.i.i, 32
  %.not.i.i.i = icmp eq i8 %23, 0
  br i1 %.not.i.i.i, label %28, label %24

24:                                               ; preds = %22
  %25 = icmp sgt i64 %18, %20
  br i1 %25, label %26, label %mpd_qresize.exit.thread.i.i

26:                                               ; preds = %24
  %27 = tail call i32 @mpd_switch_to_dyn(ptr noundef nonnull %0, i64 noundef %18, ptr noundef %4) #33
  br label %mpd_qresize.exit.i.i

28:                                               ; preds = %22
  %29 = tail call i32 @mpd_realloc_dyn(ptr noundef nonnull %0, i64 noundef %18, ptr noundef %4) #33
  br label %mpd_qresize.exit.i.i

mpd_qresize.exit.i.i:                             ; preds = %28, %26
  %.0.i.i.i = phi i32 [ %27, %26 ], [ %29, %28 ]
  %.not.i.i = icmp eq i32 %.0.i.i.i, 0
  br i1 %.not.i.i, label %mpd_qcopy_sign.exit, label %mpd_qresize.exit.mpd_qresize.exit.thread_crit_edge.i.i

mpd_qresize.exit.mpd_qresize.exit.thread_crit_edge.i.i: ; preds = %mpd_qresize.exit.i.i
  %.pre.i.i = load i8, ptr %0, align 8, !tbaa !19
  %.pre21.i.i = load i64, ptr %15, align 8, !tbaa !18
  br label %mpd_qresize.exit.thread.i.i

mpd_qresize.exit.thread.i.i:                      ; preds = %mpd_qresize.exit.mpd_qresize.exit.thread_crit_edge.i.i, %24, %14
  %30 = phi i64 [ %.pre21.i.i, %mpd_qresize.exit.mpd_qresize.exit.thread_crit_edge.i.i ], [ %16, %24 ], [ %16, %14 ]
  %31 = phi i8 [ %.pre.i.i, %mpd_qresize.exit.mpd_qresize.exit.thread_crit_edge.i.i ], [ %.pre20.i.i, %24 ], [ %.pre20.i.i, %14 ]
  %32 = load i8, ptr %1, align 8, !tbaa !19
  %33 = and i8 %31, -16
  %34 = and i8 %32, 15
  %35 = or disjoint i8 %34, %33
  store i8 %35, ptr %0, align 8, !tbaa !19
  %36 = getelementptr inbounds nuw i8, ptr %1, i64 8
  %37 = load i64, ptr %36, align 8, !tbaa !7
  %38 = getelementptr inbounds nuw i8, ptr %0, i64 8
  store i64 %37, ptr %38, align 8, !tbaa !7
  %39 = getelementptr inbounds nuw i8, ptr %1, i64 16
  %40 = load i64, ptr %39, align 8, !tbaa !11
  %41 = getelementptr inbounds nuw i8, ptr %0, i64 16
  store i64 %40, ptr %41, align 8, !tbaa !11
  %42 = getelementptr inbounds nuw i8, ptr %0, i64 24
  store i64 %30, ptr %42, align 8, !tbaa !18
  %43 = getelementptr inbounds nuw i8, ptr %0, i64 40
  %44 = load ptr, ptr %43, align 8, !tbaa !17
  %45 = getelementptr inbounds nuw i8, ptr %1, i64 40
  %46 = load ptr, ptr %45, align 8, !tbaa !17
  %47 = load i64, ptr %15, align 8, !tbaa !18
  %48 = shl i64 %47, 3
  tail call void @llvm.memcpy.p0.p0.i64(ptr align 8 %44, ptr align 8 %46, i64 %48, i1 false)
  br label %49

49:                                               ; preds = %mpd_qresize.exit.thread.i.i, %10
  %50 = load i8, ptr %0, align 8, !tbaa !19
  %51 = and i8 %50, -2
  %52 = or disjoint i8 %51, %12
  store i8 %52, ptr %0, align 8, !tbaa !19
  br label %mpd_qcopy_sign.exit

53:                                               ; preds = %7
  %54 = icmp slt i32 %8, 0
  br i1 %54, label %55, label %56

55:                                               ; preds = %53
  tail call void @mpd_qnext_plus(ptr noundef %0, ptr noundef %1, ptr noundef %3, ptr noundef %4)
  br label %57

56:                                               ; preds = %53
  tail call void @mpd_qnext_minus(ptr noundef %0, ptr noundef %1, ptr noundef %3, ptr noundef %4)
  br label %57

57:                                               ; preds = %56, %55
  %58 = load i8, ptr %0, align 8, !tbaa !19
  %59 = and i8 %58, 2
  %.not27 = icmp eq i8 %59, 0
  br i1 %.not27, label %63, label %60

60:                                               ; preds = %57
  %61 = load i32, ptr %4, align 4, !tbaa !23
  %62 = or i32 %61, 6208
  store i32 %62, ptr %4, align 4, !tbaa !23
  br label %mpd_qcopy_sign.exit

63:                                               ; preds = %57
  %64 = getelementptr inbounds nuw i8, ptr %0, i64 8
  %65 = load i64, ptr %64, align 8, !tbaa !7
  %66 = getelementptr inbounds nuw i8, ptr %0, i64 16
  %67 = load i64, ptr %66, align 8, !tbaa !11
  %68 = add i64 %65, -1
  %69 = add i64 %68, %67
  %70 = getelementptr inbounds nuw i8, ptr %3, i64 16
  %71 = load i64, ptr %70, align 8, !tbaa !12
  %72 = icmp slt i64 %69, %71
  br i1 %72, label %73, label %mpd_qcopy_sign.exit

73:                                               ; preds = %63
  %74 = load i32, ptr %4, align 4, !tbaa !23
  %75 = or i32 %74, 28736
  store i32 %75, ptr %4, align 4, !tbaa !23
  %76 = and i8 %58, 12
  %.not.i = icmp eq i8 %76, 0
  br i1 %.not.i, label %mpd_iszero.exit, label %mpd_qcopy_sign.exit

mpd_iszero.exit:                                  ; preds = %73
  %77 = getelementptr inbounds nuw i8, ptr %0, i64 40
  %78 = load ptr, ptr %77, align 8, !tbaa !17
  %79 = getelementptr inbounds nuw i8, ptr %0, i64 24
  %80 = load i64, ptr %79, align 8, !tbaa !18
  %81 = getelementptr i64, ptr %78, i64 %80
  %82 = getelementptr i8, ptr %81, i64 -8
  %83 = load i64, ptr %82, align 8, !tbaa !3
  %.not30 = icmp eq i64 %83, 0
  br i1 %.not30, label %84, label %mpd_qcopy_sign.exit

84:                                               ; preds = %mpd_iszero.exit
  %85 = or i32 %74, 28737
  store i32 %85, ptr %4, align 4, !tbaa !23
  br label %mpd_qcopy_sign.exit

mpd_qcopy_sign.exit:                              ; preds = %73, %49, %mpd_qresize.exit.i.i, %60, %mpd_iszero.exit, %84, %63, %5
  ret void
}